target datalayout = "e-m:e-p270:32:32-p271:32:32-p272:64:64-i64:64-i128:128-f80:128-n8:16:32:64-S128"
target triple = "x86_64-unknown-linux-gnu"

%struct.redisContext = type { ptr, i32, [128 x i8], i32, i32, ptr, ptr, i32, ptr, ptr, %struct.anon, %struct.anon.0, ptr, i64, ptr, ptr, ptr, ptr }
%struct.anon = type { ptr, ptr, i32 }
%struct.anon.0 = type { ptr }
%struct.hisdshdr8 = type { i8, i8, i8, [0 x i8] }
%struct.hisdshdr16 = type <{ i16, i16, i8, [0 x i8] }>
%struct.hisdshdr32 = type <{ i32, i32, i8, [0 x i8] }>
%struct.hisdshdr64 = type <{ i64, i64, i8, [0 x i8] }>

; Function Attrs: nounwind uwtable
define internal i64 @hi_sdslen(ptr noundef %s) #0 {
entry:
  %retval = alloca i64, align 8
  %s.addr = alloca ptr, align 8
  %flags = alloca i8, align 1
  store ptr %s, ptr %s.addr, align 8
  %0 = load ptr, ptr %s.addr, align 8
  %arrayidx = getelementptr inbounds i8, ptr %0, i64 -1
  %1 = load i8, ptr %arrayidx, align 1
  store i8 %1, ptr %flags, align 1
  %2 = load i8, ptr %flags, align 1
  %conv = zext i8 %2 to i32
  %and = and i32 %conv, 7
  switch i32 %and, label %sw.epilog [
    i32 0, label %sw.bb
    i32 1, label %sw.bb3
    i32 2, label %sw.bb5
    i32 3, label %sw.bb9
    i32 4, label %sw.bb13
  ]

sw.bb:                                            ; preds = %entry
  %3 = load i8, ptr %flags, align 1
  %conv1 = zext i8 %3 to i32
  %shr = ashr i32 %conv1, 3
  %conv2 = sext i32 %shr to i64
  store i64 %conv2, ptr %retval, align 8
  br label %return

sw.bb3:                                           ; preds = %entry
  %4 = load ptr, ptr %s.addr, align 8
  %add.ptr = getelementptr inbounds i8, ptr %4, i64 -3
  %len = getelementptr inbounds %struct.hisdshdr8, ptr %add.ptr, i32 0, i32 0
  %5 = load i8, ptr %len, align 1
  %conv4 = zext i8 %5 to i64
  store i64 %conv4, ptr %retval, align 8
  br label %return

sw.bb5:                                           ; preds = %entry
  %6 = load ptr, ptr %s.addr, align 8
  %add.ptr6 = getelementptr inbounds i8, ptr %6, i64 -5
  %len7 = getelementptr inbounds %struct.hisdshdr16, ptr %add.ptr6, i32 0, i32 0
  %7 = load i16, ptr %len7, align 1
  %conv8 = zext i16 %7 to i64
  store i64 %conv8, ptr %retval, align 8
  br label %return

sw.bb9:                                           ; preds = %entry
  %8 = load ptr, ptr %s.addr, align 8
  %add.ptr10 = getelementptr inbounds i8, ptr %8, i64 -9
  %len11 = getelementptr inbounds %struct.hisdshdr32, ptr %add.ptr10, i32 0, i32 0
  %9 = load i32, ptr %len11, align 1
  %conv12 = zext i32 %9 to i64
  store i64 %conv12, ptr %retval, align 8
  br label %return

sw.bb13:                                          ; preds = %entry
  %10 = load ptr, ptr %s.addr, align 8
  %add.ptr14 = getelementptr inbounds i8, ptr %10, i64 -17
  %len15 = getelementptr inbounds %struct.hisdshdr64, ptr %add.ptr14, i32 0, i32 0
  %11 = load i64, ptr %len15, align 1
  store i64 %11, ptr %retval, align 8
  br label %return

sw.epilog:                                        ; preds = %entry
  store i64 0, ptr %retval, align 8
  br label %return

return:                                           ; preds = %sw.epilog, %sw.bb13, %sw.bb9, %sw.bb5, %sw.bb3, %sw.bb
  %12 = load i64, ptr %retval, align 8
  ret i64 %12
}

; Function Attrs: nounwind uwtable
define dso_local i64 @cliWriteConn(ptr noundef %c, ptr noundef %buf, i64 noundef %buf_len) #0 {
entry:
  %retval = alloca i64, align 8
  %c.addr = alloca ptr, align 8
  %buf.addr = alloca ptr, align 8
  %buf_len.addr = alloca i64, align 8
  %done = alloca i32, align 4
  %left = alloca i64, align 8
  store ptr %c, ptr %c.addr, align 8
  store ptr %buf, ptr %buf.addr, align 8
  store i64 %buf_len, ptr %buf_len.addr, align 8
  store i32 0, ptr %done, align 4
  %0 = load ptr, ptr %c.addr, align 8
  %obuf = getelementptr inbounds %struct.redisContext, ptr %0, i32 0, i32 5
  %1 = load ptr, ptr %obuf, align 8
  %2 = load ptr, ptr %buf.addr, align 8
  %3 = load i64, ptr %buf_len.addr, align 8
  %call = call ptr @hi_sdscatlen(ptr noundef %1, ptr noundef %2, i64 noundef %3)
  %4 = load ptr, ptr %c.addr, align 8
  %obuf1 = getelementptr inbounds %struct.redisContext, ptr %4, i32 0, i32 5
  store ptr %call, ptr %obuf1, align 8
  %5 = load ptr, ptr %c.addr, align 8
  %call2 = call i32 @redisBufferWrite(ptr noundef %5, ptr noundef %done)
  %cmp = icmp eq i32 %call2, -1
  br i1 %cmp, label %if.then, label %if.end13

if.then:                                          ; preds = %entry
  %6 = load ptr, ptr %c.addr, align 8
  %flags = getelementptr inbounds %struct.redisContext, ptr %6, i32 0, i32 4
  %7 = load i32, ptr %flags, align 8
  %and = and i32 %7, 1
  %tobool = icmp ne i32 %and, 0
  br i1 %tobool, label %if.end, label %if.then3

if.then3:                                         ; preds = %if.then
  %call4 = call ptr @__errno_location() #6
  store i32 11, ptr %call4, align 4
  br label %if.end

if.end:                                           ; preds = %if.then3, %if.then
  %8 = load ptr, ptr %c.addr, align 8
  %obuf5 = getelementptr inbounds %struct.redisContext, ptr %8, i32 0, i32 5
  %9 = load ptr, ptr %obuf5, align 8
  %call6 = call i64 @hi_sdslen(ptr noundef %9)
  %10 = load i64, ptr %buf_len.addr, align 8
  %cmp7 = icmp ugt i64 %call6, %10
  br i1 %cmp7, label %if.then8, label %if.else

if.then8:                                         ; preds = %if.end
  %11 = load ptr, ptr %c.addr, align 8
  %obuf9 = getelementptr inbounds %struct.redisContext, ptr %11, i32 0, i32 5
  %12 = load ptr, ptr %obuf9, align 8
  %13 = load i64, ptr %buf_len.addr, align 8
  %add = add i64 %13, 1
  %sub = sub i64 0, %add
  %call10 = call i32 @hi_sdsrange(ptr noundef %12, i64 noundef 0, i64 noundef %sub)
  br label %if.end12

if.else:                                          ; preds = %if.end
  %14 = load ptr, ptr %c.addr, align 8
  %obuf11 = getelementptr inbounds %struct.redisContext, ptr %14, i32 0, i32 5
  %15 = load ptr, ptr %obuf11, align 8
  call void @hi_sdsclear(ptr noundef %15)
  br label %if.end12

if.end12:                                         ; preds = %if.else, %if.then8
  store i64 -1, ptr %retval, align 8
  br label %return

if.end13:                                         ; preds = %entry
  %16 = load i32, ptr %done, align 4
  %tobool14 = icmp ne i32 %16, 0
  br i1 %tobool14, label %if.then15, label %if.end17

if.then15:                                        ; preds = %if.end13
  %17 = load ptr, ptr %c.addr, align 8
  %obuf16 = getelementptr inbounds %struct.redisContext, ptr %17, i32 0, i32 5
  %18 = load ptr, ptr %obuf16, align 8
  call void @hi_sdsclear(ptr noundef %18)
  %19 = load i64, ptr %buf_len.addr, align 8
  store i64 %19, ptr %retval, align 8
  br label %return

if.end17:                                         ; preds = %if.end13
  %20 = load ptr, ptr %c.addr, align 8
  %obuf18 = getelementptr inbounds %struct.redisContext, ptr %20, i32 0, i32 5
  %21 = load ptr, ptr %obuf18, align 8
  %call19 = call i64 @hi_sdslen(ptr noundef %21)
  %22 = load i64, ptr %buf_len.addr, align 8
  %cmp20 = icmp ugt i64 %call19, %22
  br i1 %cmp20, label %if.then21, label %if.end26

if.then21:                                        ; preds = %if.end17
  %23 = load ptr, ptr %c.addr, align 8
  %obuf22 = getelementptr inbounds %struct.redisContext, ptr %23, i32 0, i32 5
  %24 = load ptr, ptr %obuf22, align 8
  %25 = load i64, ptr %buf_len.addr, align 8
  %add23 = add i64 %25, 1
  %sub24 = sub i64 0, %add23
  %call25 = call i32 @hi_sdsrange(ptr noundef %24, i64 noundef 0, i64 noundef %sub24)
  store i64 0, ptr %retval, align 8
  br label %return

if.end26:                                         ; preds = %if.end17
  %26 = load ptr, ptr %c.addr, align 8
  %obuf27 = getelementptr inbounds %struct.redisContext, ptr %26, i32 0, i32 5
  %27 = load ptr, ptr %obuf27, align 8
  %call28 = call i64 @hi_sdslen(ptr noundef %27)
  store i64 %call28, ptr %left, align 8
  %28 = load ptr, ptr %c.addr, align 8
  %obuf29 = getelementptr inbounds %struct.redisContext, ptr %28, i32 0, i32 5
  %29 = load ptr, ptr %obuf29, align 8
  call void @hi_sdsclear(ptr noundef %29)
  %30 = load i64, ptr %buf_len.addr, align 8
  %31 = load i64, ptr %left, align 8
  %sub30 = sub i64 %30, %31
  store i64 %sub30, ptr %retval, align 8
  br label %return

return:                                           ; preds = %if.end26, %if.then21, %if.then15, %if.end12
  %32 = load i64, ptr %retval, align 8
  ret i64 %32
}