; Function Attrs: nounwind uwtable
define dso_local i64 @cliWriteConn(ptr noundef %c, ptr noundef %buf, i64 noundef %buf_len) local_unnamed_addr #1 {
entry:
  %done = alloca i32, align 4
  store i32 0, ptr %done, align 4
  %obuf = getelementptr inbounds i8, ptr %c, i64 152
  %0 = load ptr, ptr %obuf, align 8
  %call = tail call ptr @hi_sdscatlen(ptr noundef %0, ptr noundef %buf, i64 noundef %buf_len) #11
  store ptr %call, ptr %obuf, align 8
  %call2 = call i32 @redisBufferWrite(ptr noundef %c, ptr noundef nonnull %done) #11
  %cmp = icmp eq i32 %call2, -1
  br i1 %cmp, label %if.then, label %if.end13

if.then:                                          ; preds = %entry
  %flags = getelementptr inbounds i8, ptr %c, i64 144
  %1 = load i32, ptr %flags, align 8
  %and = and i32 %1, 1
  %tobool.not = icmp eq i32 %and, 0
  br i1 %tobool.not, label %if.then3, label %if.end

if.then3:                                         ; preds = %if.then
  %call4 = tail call ptr @__errno_location() #12
  store i32 11, ptr %call4, align 4
  br label %if.end

if.end:                                           ; preds = %if.then3, %if.then
  %2 = load ptr, ptr %obuf, align 8
  %arrayidx.i = getelementptr inbounds i8, ptr %2, i64 -1
  %3 = load i8, ptr %arrayidx.i, align 1
  %conv.i = zext i8 %3 to i32
  %and.i = and i32 %conv.i, 7
  switch i32 %and.i, label %if.else [
    i32 0, label %sw.bb.i
    i32 1, label %sw.bb3.i
    i32 2, label %sw.bb5.i
    i32 3, label %sw.bb9.i
    i32 4, label %sw.bb13.i
  ]

sw.bb.i:                                          ; preds = %if.end
  %shr.i = lshr i32 %conv.i, 3
  %conv2.i = zext nneg i32 %shr.i to i64
  br label %hi_sdslen.exit

sw.bb3.i:                                         ; preds = %if.end
  %add.ptr.i = getelementptr inbounds i8, ptr %2, i64 -3
  %4 = load i8, ptr %add.ptr.i, align 1
  %conv4.i = zext i8 %4 to i64
  br label %hi_sdslen.exit

sw.bb5.i:                                         ; preds = %if.end
  %add.ptr6.i = getelementptr inbounds i8, ptr %2, i64 -5
  %5 = load i16, ptr %add.ptr6.i, align 1
  %conv8.i = zext i16 %5 to i64
  br label %hi_sdslen.exit

sw.bb9.i:                                         ; preds = %if.end
  %add.ptr10.i = getelementptr inbounds i8, ptr %2, i64 -9
  %6 = load i32, ptr %add.ptr10.i, align 1
  %conv12.i = zext i32 %6 to i64
  br label %hi_sdslen.exit

sw.bb13.i:                                        ; preds = %if.end
  %add.ptr14.i = getelementptr inbounds i8, ptr %2, i64 -17
  %7 = load i64, ptr %add.ptr14.i, align 1
  br label %hi_sdslen.exit

hi_sdslen.exit:                                   ; preds = %sw.bb.i, %sw.bb3.i, %sw.bb5.i, %sw.bb9.i, %sw.bb13.i
  %retval.0.i = phi i64 [ %7, %sw.bb13.i ], [ %conv12.i, %sw.bb9.i ], [ %conv8.i, %sw.bb5.i ], [ %conv4.i, %sw.bb3.i ], [ %conv2.i, %sw.bb.i ]
  %cmp7 = icmp ugt i64 %retval.0.i, %buf_len
  br i1 %cmp7, label %if.then8, label %if.else

if.then8:                                         ; preds = %hi_sdslen.exit
  %sub = xor i64 %buf_len, -1
  %call10 = call i32 @hi_sdsrange(ptr noundef nonnull %2, i64 noundef 0, i64 noundef %sub) #11
  br label %return

if.else:                                          ; preds = %if.end, %hi_sdslen.exit
  call void @hi_sdsclear(ptr noundef nonnull %2) #11
  br label %return

if.end13:                                         ; preds = %entry
  %8 = load i32, ptr %done, align 4
  %tobool14.not = icmp eq i32 %8, 0
  %9 = load ptr, ptr %obuf, align 8
  br i1 %tobool14.not, label %if.end17, label %if.then15

if.then15:                                        ; preds = %if.end13
  call void @hi_sdsclear(ptr noundef %9) #11
  br label %return

if.end17:                                         ; preds = %if.end13
  %arrayidx.i18 = getelementptr inbounds i8, ptr %9, i64 -1
  %10 = load i8, ptr %arrayidx.i18, align 1
  %conv.i19 = zext i8 %10 to i32
  %and.i20 = and i32 %conv.i19, 7
  switch i32 %and.i20, label %hi_sdslen.exit55 [
    i32 0, label %sw.bb.i33
    i32 1, label %sw.bb3.i30
    i32 2, label %sw.bb5.i27
    i32 3, label %sw.bb9.i24
    i32 4, label %sw.bb13.i21
  ]

sw.bb.i33:                                        ; preds = %if.end17
  %shr.i34 = lshr i32 %conv.i19, 3
  %conv2.i35 = zext nneg i32 %shr.i34 to i64
  br label %hi_sdslen.exit36

sw.bb3.i30:                                       ; preds = %if.end17
  %add.ptr.i31 = getelementptr inbounds i8, ptr %9, i64 -3
  %11 = load i8, ptr %add.ptr.i31, align 1
  %conv4.i32 = zext i8 %11 to i64
  br label %hi_sdslen.exit36

sw.bb5.i27:                                       ; preds = %if.end17
  %add.ptr6.i28 = getelementptr inbounds i8, ptr %9, i64 -5
  %12 = load i16, ptr %add.ptr6.i28, align 1
  %conv8.i29 = zext i16 %12 to i64
  br label %hi_sdslen.exit36

sw.bb9.i24:                                       ; preds = %if.end17
  %add.ptr10.i25 = getelementptr inbounds i8, ptr %9, i64 -9
  %13 = load i32, ptr %add.ptr10.i25, align 1
  %conv12.i26 = zext i32 %13 to i64
  br label %hi_sdslen.exit36

sw.bb13.i21:                                      ; preds = %if.end17
  %add.ptr14.i22 = getelementptr inbounds i8, ptr %9, i64 -17
  %14 = load i64, ptr %add.ptr14.i22, align 1
  br label %hi_sdslen.exit36

hi_sdslen.exit36:                                 ; preds = %sw.bb.i33, %sw.bb3.i30, %sw.bb5.i27, %sw.bb9.i24, %sw.bb13.i21
  %retval.0.i23 = phi i64 [ %14, %sw.bb13.i21 ], [ %conv12.i26, %sw.bb9.i24 ], [ %conv8.i29, %sw.bb5.i27 ], [ %conv4.i32, %sw.bb3.i30 ], [ %conv2.i35, %sw.bb.i33 ]
  %cmp20 = icmp ugt i64 %retval.0.i23, %buf_len
  br i1 %cmp20, label %if.then21, label %if.end26

if.then21:                                        ; preds = %hi_sdslen.exit36
  %sub24 = xor i64 %buf_len, -1
  %call25 = call i32 @hi_sdsrange(ptr noundef nonnull %9, i64 noundef 0, i64 noundef %sub24) #11
  br label %return

if.end26:                                         ; preds = %hi_sdslen.exit36
  switch i32 %and.i20, label %hi_sdslen.exit55 [
    i32 0, label %sw.bb.i52
    i32 1, label %sw.bb3.i49
    i32 2, label %sw.bb5.i46
    i32 3, label %sw.bb9.i43
    i32 4, label %sw.bb13.i40
  ]

sw.bb.i52:                                        ; preds = %if.end26
  %shr.i53 = lshr i32 %conv.i19, 3
  %conv2.i54 = zext nneg i32 %shr.i53 to i64
  br label %hi_sdslen.exit55

sw.bb3.i49:                                       ; preds = %if.end26
  %add.ptr.i50 = getelementptr inbounds i8, ptr %9, i64 -3
  %15 = load i8, ptr %add.ptr.i50, align 1
  %conv4.i51 = zext i8 %15 to i64
  br label %hi_sdslen.exit55

sw.bb5.i46:                                       ; preds = %if.end26
  %add.ptr6.i47 = getelementptr inbounds i8, ptr %9, i64 -5
  %16 = load i16, ptr %add.ptr6.i47, align 1
  %conv8.i48 = zext i16 %16 to i64
  br label %hi_sdslen.exit55

sw.bb9.i43:                                       ; preds = %if.end26
  %add.ptr10.i44 = getelementptr inbounds i8, ptr %9, i64 -9
  %17 = load i32, ptr %add.ptr10.i44, align 1
  %conv12.i45 = zext i32 %17 to i64
  br label %hi_sdslen.exit55

sw.bb13.i40:                                      ; preds = %if.end26
  %add.ptr14.i41 = getelementptr inbounds i8, ptr %9, i64 -17
  %18 = load i64, ptr %add.ptr14.i41, align 1
  br label %hi_sdslen.exit55

hi_sdslen.exit55:                                 ; preds = %if.end17, %if.end26, %sw.bb.i52, %sw.bb3.i49, %sw.bb5.i46, %sw.bb9.i43, %sw.bb13.i40
  %retval.0.i42 = phi i64 [ %18, %sw.bb13.i40 ], [ %conv12.i45, %sw.bb9.i43 ], [ %conv8.i48, %sw.bb5.i46 ], [ %conv4.i51, %sw.bb3.i49 ], [ %conv2.i54, %sw.bb.i52 ], [ 0, %if.end26 ], [ 0, %if.end17 ]
  call void @hi_sdsclear(ptr noundef nonnull %9) #11
  %sub30 = sub i64 %buf_len, %retval.0.i42
  br label %return

return:                                           ; preds = %if.then8, %if.else, %hi_sdslen.exit55, %if.then21, %if.then15
  %retval.0 = phi i64 [ %buf_len, %if.then15 ], [ 0, %if.then21 ], [ %sub30, %hi_sdslen.exit55 ], [ -1, %if.else ], [ -1, %if.then8 ]
  ret i64 %retval.0
}